target datalayout = "e-m:e-p270:32:32-p271:32:32-p272:64:64-i64:64-i128:128-f80:128-n8:16:32:64-S128"
target triple = "x86_64-pc-linux-gnu"

%"class.sat::literal" = type { i32 }
%class.ptr_vector = type { %class.vector }
%class.vector = type { ptr }
%class.svector = type { %class.vector.0 }
%class.vector.0 = type { ptr }
%"class.smt::theory_seq" = type { %"class.smt::theory.base", %"class.seq::eq_solver_context", %class.scoped_dependency_manager, %"class.smt::theory_seq::solution_map", %class.scoped_vector, %class.scoped_vector.10, %class.scoped_vector.12, %class.scoped_vector.14, %class.scoped_vector.14, i8, i32, %class.union_find, %"class.smt::seq_offset_eq", %class.obj_ref_map, %class.obj_ref_map, ptr, %"class.smt::theory_seq::exclusion_table", %class.ref_vector, %class.obj_hashtable.26, i32, i8, %class.ref_vector, %class.ref_vector, %class.obj_hashtable.26, %class.obj_hashtable.26, %class.ref_vector, %class.obj_map.32, %class.ref_vector, %class.scoped_ptr_vector, ptr, %class.th_rewriter, %class.th_rewriter, %class.seq_rewriter, %class.seq_util, %class.arith_util, %"class.seq::skolem", %"class.smt::seq_axioms", %"class.seq::eq_solver", %"class.smt::seq_regex", %"class.smt::arith_value", %class.trail_stack, %"struct.smt::theory_seq::stats", %class.ptr_vector.5, %class.ptr_vector.5, %class.ref_vector, %class.ref_vector, %class.ref_vector, %class.ref_vector, %class.ref_pair_vector, i32, %"class.sat::literal", ptr, i8, i8, i8, [5 x i8], %class.obj_hashtable.26, %class.obj_hashtable.26, ptr, %class.obj_pair_hashtable, %class.scoped_ptr_vector.67, %class.u_map.70, %class.ptr_vector.5 }
%"class.smt::theory.base" = type <{ ptr, i32, [4 x i8], ptr, ptr, %class.ptr_vector, %class.svector, i32, i8 }>
%"class.seq::eq_solver_context" = type { ptr }
%class.scoped_dependency_manager = type { [8 x i8], %"class.scoped_dependency_manager<smt::theory_seq::assumption>::config::allocator", %class.dependency_manager }
%"class.scoped_dependency_manager<smt::theory_seq::assumption>::config::allocator" = type { %class.region }
%class.region = type { ptr, ptr, ptr, ptr, ptr }
%class.dependency_manager = type { ptr, ptr, %class.ptr_vector.1 }
%class.ptr_vector.1 = type { %class.vector.2 }
%class.vector.2 = type { ptr }
%"class.smt::theory_seq::solution_map" = type { ptr, ptr, %class.svector.3, %"class.smt::theory_seq::eval_cache", %class.ref_vector, %class.ref_vector, %class.ptr_vector.1, %class.svector.7, %class.svector }
%class.svector.3 = type { %class.vector.4 }
%class.vector.4 = type { ptr }
%"class.smt::theory_seq::eval_cache" = type { %class.svector.3, %class.ref_vector }
%class.svector.7 = type { %class.vector.8 }
%class.vector.8 = type { ptr }
%class.scoped_vector = type { i32, i32, %class.svector, %class.vector.9, %class.svector, %class.svector, %class.svector, %class.svector, %class.svector }
%class.vector.9 = type { ptr }
%class.scoped_vector.10 = type { i32, i32, %class.svector, %class.vector.11, %class.svector, %class.svector, %class.svector, %class.svector, %class.svector }
%class.vector.11 = type { ptr }
%class.scoped_vector.12 = type { i32, i32, %class.svector, %class.vector.13, %class.svector, %class.svector, %class.svector, %class.svector, %class.svector }
%class.vector.13 = type { ptr }
%class.scoped_vector.14 = type { i32, i32, %class.svector, %class.vector.15, %class.svector, %class.svector, %class.svector, %class.svector, %class.svector }
%class.vector.15 = type { ptr }
%class.union_find = type { ptr, ptr, %class.svector, %class.svector, %class.svector, %"class.union_find<smt::theory_seq>::mk_var_trail" }
%"class.union_find<smt::theory_seq>::mk_var_trail" = type { %class.trail, ptr }
%class.trail = type { ptr }
%"class.smt::seq_offset_eq" = type <{ ptr, ptr, %class.seq_util, %class.arith_util, %class.obj_hashtable, %class.obj_pair_map, i32, [4 x i8] }>
%class.obj_hashtable = type { %class.core_hashtable.base, [4 x i8] }
%class.core_hashtable.base = type <{ ptr, i32, i32, i32 }>
%class.obj_pair_map = type { %class.core_hashtable.17 }
%class.core_hashtable.17 = type <{ ptr, i32, i32, i32, [4 x i8] }>
%class.obj_ref_map = type { ptr, %class.obj_map }
%class.obj_map = type { %class.core_hashtable.19 }
%class.core_hashtable.19 = type <{ ptr, i32, i32, i32, [4 x i8] }>
%"class.smt::theory_seq::exclusion_table" = type { ptr, %class.obj_pair_hashtable, %class.ref_vector, %class.ref_vector, %class.svector }
%class.obj_map.32 = type { %class.core_hashtable.33 }
%class.core_hashtable.33 = type <{ ptr, i32, i32, i32, [4 x i8] }>
%class.scoped_ptr_vector = type { %class.ptr_vector.37 }
%class.ptr_vector.37 = type { %class.vector.38 }
%class.vector.38 = type { ptr }
%class.th_rewriter = type { ptr, %class.params_ref }
%class.params_ref = type { ptr }
%class.seq_rewriter = type <{ %class.seq_util, %class.arith_util, %class.bool_rewriter, %class.re2automaton, %"class.seq_rewriter::op_cache", %class.ref_vector, %class.ref_vector, %class.ref_vector, i8, [7 x i8] }>
%class.bool_rewriter = type { ptr, i8, i8, i8, i8, i8, i8, i32, i8, i32, i32, i8, %class.ptr_vector.5, %class.ptr_vector.5, %class.svector, %class.svector }
%class.re2automaton = type { ptr, [8 x i8], %class.seq_util, %class.scoped_ptr, %class.scoped_ptr.39, %class.scoped_ptr.40 }
%class.scoped_ptr = type { ptr }
%class.scoped_ptr.39 = type { ptr }
%class.scoped_ptr.40 = type { ptr }
%"class.seq_rewriter::op_cache" = type { i32, %class.ref_vector, %class.hashtable }
%class.hashtable = type { %class.core_hashtable.base.42, [4 x i8] }
%class.core_hashtable.base.42 = type <{ ptr, i32, i32, i32 }>
%class.seq_util = type { ptr, ptr, ptr, i32, [4 x i8], %"class.seq_util::str", %"class.seq_util::rex" }
%"class.seq_util::str" = type <{ ptr, ptr, i32, [4 x i8] }>
%"class.seq_util::rex" = type { ptr, ptr, i32, %class.vector.16, %class.ref_vector, %"struct.seq_util::rex::info", %"struct.seq_util::rex::info" }
%class.vector.16 = type { ptr }
%"struct.seq_util::rex::info" = type { i32, i8, i32, i32 }
%class.arith_util = type { ptr, ptr }
%"class.seq::skolem" = type { ptr, ptr, %class.seq_util, %class.arith_util, %class.symbol, %class.symbol, %class.symbol, %class.symbol, %class.symbol, %class.symbol, %class.symbol, %class.symbol, %class.symbol, %class.symbol, %class.symbol, %class.symbol, %class.symbol, %class.symbol, %class.symbol, %class.symbol, %class.symbol, %class.symbol, %class.symbol, %class.symbol, %class.symbol }
%class.symbol = type { ptr }
%"class.smt::seq_axioms" = type { ptr, ptr, ptr, %class.arith_util, %class.seq_util, %"class.seq::skolem", %"class.seq::axioms", i8, %"class.std::function.53", %"class.std::function.55" }
%"class.seq::axioms" = type { ptr, ptr, %class.arith_util, %class.seq_util, %"class.seq::skolem", %class.ref_vector, %class.ref_vector, %class.obj_map.43, %"class.std::function", %"class.std::function.48", %"class.std::function.51" }
%class.obj_map.43 = type { %class.core_hashtable.44 }
%class.core_hashtable.44 = type <{ ptr, i32, i32, i32, [4 x i8] }>
%"class.std::function" = type { %"class.std::_Function_base", ptr }
%"class.std::_Function_base" = type { %"union.std::_Any_data", ptr }
%"union.std::_Any_data" = type { %"union.std::_Nocopy_types" }
%"union.std::_Nocopy_types" = type { { i64, i64 } }
%"class.std::function.48" = type { %"class.std::_Function_base", ptr }
%"class.std::function.51" = type { %"class.std::_Function_base", ptr }
%"class.std::function.53" = type { %"class.std::_Function_base", ptr }
%"class.std::function.55" = type { %"class.std::_Function_base", ptr }
%"class.seq::eq_solver" = type { ptr, ptr, ptr, %class.arith_util, %class.seq_util, %class.ref_vector, %class.ptr_vector.5 }
%"class.smt::seq_regex" = type <{ ptr, ptr, ptr, %class.vector.57, %class.ptr_addr_map, %class.ref_vector, %class.state_graph, i32, [4 x i8] }>
%class.vector.57 = type { ptr }
%class.ptr_addr_map = type { %class.table2map }
%class.table2map = type { %class.core_hashtable.58 }
%class.core_hashtable.58 = type <{ ptr, i32, i32, i32, [4 x i8] }>
%class.state_graph = type { %class.uint_set, %class.uint_set, %class.uint_set, %class.uint_set, %class.uint_set, %class.basic_union_find, %class.u_map, %class.u_map, %class.u_map, %"struct.state_graph::state_pp" }
%class.uint_set = type { %class.svector }
%class.basic_union_find = type { %class.svector, %class.svector, %class.svector }
%class.u_map = type { %class.map }
%class.map = type { %class.table2map.60 }
%class.table2map.60 = type { %class.core_hashtable.61 }
%class.core_hashtable.61 = type <{ ptr, i32, i32, i32, [4 x i8] }>
%"struct.state_graph::state_pp" = type { ptr, ptr }
%"class.smt::arith_value" = type { ptr, ptr, %class.arith_util, %class.bv_util, ptr, ptr, ptr, ptr }
%class.bv_util = type { %class.bv_recognizers, ptr, ptr }
%class.bv_recognizers = type { i32 }
%class.trail_stack = type { %class.ptr_vector.63, %class.svector, %class.region }
%class.ptr_vector.63 = type { %class.vector.64 }
%class.vector.64 = type { ptr }
%"struct.smt::theory_seq::stats" = type { i32, i32, i32, i32, i32, i32, i32, i32, i32, i32, i32, i32, i32 }
%class.ref_vector = type { %class.ref_vector_core }
%class.ref_vector_core = type { %class.ref_manager_wrapper, %class.ptr_vector.5 }
%class.ref_manager_wrapper = type { ptr }
%class.ref_pair_vector = type { %class.ref_pair_vector_core }
%class.ref_pair_vector_core = type { %class.ref_manager_wrapper, %class.svector.65 }
%class.svector.65 = type { %class.vector.66 }
%class.vector.66 = type { ptr }
%class.obj_hashtable.26 = type { %class.core_hashtable.base.30, [4 x i8] }
%class.core_hashtable.base.30 = type <{ ptr, i32, i32, i32 }>
%class.obj_pair_hashtable = type { %class.core_hashtable.base.25, [4 x i8] }
%class.core_hashtable.base.25 = type <{ ptr, i32, i32, i32 }>
%class.scoped_ptr_vector.67 = type { %class.ptr_vector.68 }
%class.ptr_vector.68 = type { %class.vector.69 }
%class.vector.69 = type { ptr }
%class.u_map.70 = type { %class.map.71 }
%class.map.71 = type { %class.table2map.72 }
%class.table2map.72 = type { %class.core_hashtable.73 }
%class.core_hashtable.73 = type <{ ptr, i32, i32, i32, [4 x i8] }>
%class.ptr_vector.5 = type { %class.vector.6 }
%class.vector.6 = type { ptr }
%"class.smt::theory_seq::depeq" = type { %"struct.seq::eq", i32, ptr }
%"struct.seq::eq" = type { %class.ref_vector, %class.ref_vector }
%"class.scoped_vector<smt::theory_seq::depeq>::iterator" = type <{ ptr, i32, [4 x i8] }>

; Function Attrs: mustprogress nounwind uwtable
define linkonce_odr hidden noundef nonnull align 8 dereferenceable(48) ptr @_ZNK6vectorIN3smt10theory_seq5depeqELb1EjEixEj(ptr noundef nonnull align 8 dereferenceable(8) %0, i32 noundef %1) #4 comdat align 2 {
  %3 = alloca ptr, align 8
  %4 = alloca i32, align 4
  store ptr %0, ptr %3, align 8, !tbaa !1006
  store i32 %1, ptr %4, align 4, !tbaa !8
  %5 = load ptr, ptr %3, align 8
  %6 = getelementptr inbounds nuw %class.vector.9, ptr %5, i32 0, i32 0
  %7 = load ptr, ptr %6, align 8, !tbaa !1008
  %8 = load i32, ptr %4, align 4, !tbaa !8
  %9 = zext i32 %8 to i64
  %10 = getelementptr inbounds nuw %"class.smt::theory_seq::depeq", ptr %7, i64 %9
  ret ptr %10
}

; Function Attrs: mustprogress nounwind uwtable
define linkonce_odr hidden noundef nonnull align 4 dereferenceable(4) ptr @_ZNK6vectorIjLb0EjEixEj(ptr noundef nonnull align 8 dereferenceable(8) %0, i32 noundef %1) #4 comdat align 2 {
  %3 = alloca ptr, align 8
  %4 = alloca i32, align 4
  store ptr %0, ptr %3, align 8, !tbaa !849
  store i32 %1, ptr %4, align 4, !tbaa !8
  %5 = load ptr, ptr %3, align 8
  %6 = getelementptr inbounds nuw %class.vector.0, ptr %5, i32 0, i32 0
  %7 = load ptr, ptr %6, align 8, !tbaa !851
  %8 = load i32, ptr %4, align 4, !tbaa !8
  %9 = zext i32 %8 to i64
  %10 = getelementptr inbounds nuw i32, ptr %7, i64 %9
  ret ptr %10
}

; Function Attrs: mustprogress uwtable
define linkonce_odr hidden noundef nonnull align 8 dereferenceable(48) ptr @_ZNK13scoped_vectorIN3smt10theory_seq5depeqEEixEj(ptr noundef nonnull align 8 dereferenceable(64) %0, i32 noundef %1) #6 comdat align 2 {
  %3 = alloca ptr, align 8
  %4 = alloca i32, align 4
  store ptr %0, ptr %3, align 8, !tbaa !210
  store i32 %1, ptr %4, align 4, !tbaa !8
  %5 = load ptr, ptr %3, align 8
  %6 = getelementptr inbounds nuw %class.scoped_vector, ptr %5, i32 0, i32 3
  %7 = getelementptr inbounds nuw %class.scoped_vector, ptr %5, i32 0, i32 5
  %8 = load i32, ptr %4, align 4, !tbaa !8
  %9 = call noundef nonnull align 4 dereferenceable(4) ptr @_ZNK6vectorIjLb0EjEixEj(ptr noundef nonnull align 8 dereferenceable(8) %7, i32 noundef %8)
  %10 = load i32, ptr %9, align 4, !tbaa !8
  %11 = call noundef nonnull align 8 dereferenceable(48) ptr @_ZNK6vectorIN3smt10theory_seq5depeqELb1EjEixEj(ptr noundef nonnull align 8 dereferenceable(8) %6, i32 noundef %10)
  ret ptr %11
}

; Function Attrs: mustprogress nounwind uwtable
define linkonce_odr hidden void @_ZN13scoped_vectorIN3smt10theory_seq5depeqEE8iteratorC2ERKS3_j(ptr noundef nonnull align 8 dereferenceable(12) %0, ptr noundef nonnull align 8 dereferenceable(64) %1, i32 noundef %2) unnamed_addr #4 comdat align 2 {
  %4 = alloca ptr, align 8
  %5 = alloca ptr, align 8
  %6 = alloca i32, align 4
  store ptr %0, ptr %4, align 8, !tbaa !330
  store ptr %1, ptr %5, align 8, !tbaa !210
  store i32 %2, ptr %6, align 4, !tbaa !8
  %7 = load ptr, ptr %4, align 8
  %8 = getelementptr inbounds nuw %"class.scoped_vector<smt::theory_seq::depeq>::iterator", ptr %7, i32 0, i32 0
  %9 = load ptr, ptr %5, align 8, !tbaa !210
  store ptr %9, ptr %8, align 8, !tbaa !210
  %10 = getelementptr inbounds nuw %"class.scoped_vector<smt::theory_seq::depeq>::iterator", ptr %7, i32 0, i32 1
  %11 = load i32, ptr %6, align 4, !tbaa !8
  store i32 %11, ptr %10, align 8, !tbaa !334
  ret void
}

; Function Attrs: mustprogress nounwind uwtable
define linkonce_odr hidden noundef nonnull align 8 dereferenceable(12) ptr @_ZN13scoped_vectorIN3smt10theory_seq5depeqEE8iteratorppEv(ptr noundef nonnull align 8 dereferenceable(12) %0) #4 comdat align 2 {
  %2 = alloca ptr, align 8
  store ptr %0, ptr %2, align 8, !tbaa !330
  %3 = load ptr, ptr %2, align 8
  %4 = getelementptr inbounds nuw %"class.scoped_vector<smt::theory_seq::depeq>::iterator", ptr %3, i32 0, i32 1
  %5 = load i32, ptr %4, align 8, !tbaa !334
  %6 = add i32 %5, 1
  store i32 %6, ptr %4, align 8, !tbaa !334
  ret ptr %3
}

; Function Attrs: mustprogress uwtable
define linkonce_odr hidden noundef nonnull align 8 dereferenceable(48) ptr @_ZN13scoped_vectorIN3smt10theory_seq5depeqEE8iteratordeEv(ptr noundef nonnull align 8 dereferenceable(12) %0) #6 comdat align 2 {
  %2 = alloca ptr, align 8
  store ptr %0, ptr %2, align 8, !tbaa !330
  %3 = load ptr, ptr %2, align 8
  %4 = getelementptr inbounds nuw %"class.scoped_vector<smt::theory_seq::depeq>::iterator", ptr %3, i32 0, i32 0
  %5 = load ptr, ptr %4, align 8, !tbaa !332
  %6 = getelementptr inbounds nuw %"class.scoped_vector<smt::theory_seq::depeq>::iterator", ptr %3, i32 0, i32 1
  %7 = load i32, ptr %6, align 8, !tbaa !334
  %8 = call noundef nonnull align 8 dereferenceable(48) ptr @_ZNK13scoped_vectorIN3smt10theory_seq5depeqEEixEj(ptr noundef nonnull align 8 dereferenceable(64) %5, i32 noundef %7)
  ret ptr %8
}

; Function Attrs: mustprogress nounwind uwtable
define linkonce_odr hidden noundef zeroext i1 @_ZNK13scoped_vectorIN3smt10theory_seq5depeqEE8iteratorneERKS4_(ptr noundef nonnull align 8 dereferenceable(12) %0, ptr noundef nonnull align 8 dereferenceable(12) %1) #4 comdat align 2 {
  %3 = alloca ptr, align 8
  %4 = alloca ptr, align 8
  store ptr %0, ptr %3, align 8, !tbaa !330
  store ptr %1, ptr %4, align 8, !tbaa !330
  %5 = load ptr, ptr %3, align 8
  %6 = load ptr, ptr %4, align 8, !tbaa !330
  %7 = getelementptr inbounds nuw %"class.scoped_vector<smt::theory_seq::depeq>::iterator", ptr %6, i32 0, i32 0
  %8 = load ptr, ptr %7, align 8, !tbaa !332
  %9 = getelementptr inbounds nuw %"class.scoped_vector<smt::theory_seq::depeq>::iterator", ptr %5, i32 0, i32 0
  %10 = load ptr, ptr %9, align 8, !tbaa !332
  %11 = icmp ne ptr %8, %10
  br i1 %11, label %19, label %12

12:                                               ; preds = %2
  %13 = load ptr, ptr %4, align 8, !tbaa !330
  %14 = getelementptr inbounds nuw %"class.scoped_vector<smt::theory_seq::depeq>::iterator", ptr %13, i32 0, i32 1
  %15 = load i32, ptr %14, align 8, !tbaa !334
  %16 = getelementptr inbounds nuw %"class.scoped_vector<smt::theory_seq::depeq>::iterator", ptr %5, i32 0, i32 1
  %17 = load i32, ptr %16, align 8, !tbaa !334
  %18 = icmp ne i32 %15, %17
  br label %19

19:                                               ; preds = %12, %2
  %20 = phi i1 [ true, %2 ], [ %18, %12 ]
  ret i1 %20
}

; Function Attrs: mustprogress uwtable
define linkonce_odr hidden { ptr, i32 } @_ZNK13scoped_vectorIN3smt10theory_seq5depeqEE3endEv(ptr noundef nonnull align 8 dereferenceable(64) %0) #6 comdat align 2 {
  %2 = alloca %"class.scoped_vector<smt::theory_seq::depeq>::iterator", align 8
  %3 = alloca ptr, align 8
  store ptr %0, ptr %3, align 8, !tbaa !210
  %4 = load ptr, ptr %3, align 8
  %5 = getelementptr inbounds nuw %class.scoped_vector, ptr %4, i32 0, i32 0
  %6 = load i32, ptr %5, align 8, !tbaa !212
  call void @_ZN13scoped_vectorIN3smt10theory_seq5depeqEE8iteratorC2ERKS3_j(ptr noundef nonnull align 8 dereferenceable(12) %2, ptr noundef nonnull align 8 dereferenceable(64) %4, i32 noundef %6)
  %7 = load { ptr, i32 }, ptr %2, align 8
  ret { ptr, i32 } %7
}

; Function Attrs: mustprogress uwtable
define linkonce_odr hidden { ptr, i32 } @_ZNK13scoped_vectorIN3smt10theory_seq5depeqEE5beginEv(ptr noundef nonnull align 8 dereferenceable(64) %0) #6 comdat align 2 {
  %2 = alloca %"class.scoped_vector<smt::theory_seq::depeq>::iterator", align 8
  %3 = alloca ptr, align 8
  store ptr %0, ptr %3, align 8, !tbaa !210
  %4 = load ptr, ptr %3, align 8
  call void @_ZN13scoped_vectorIN3smt10theory_seq5depeqEE8iteratorC2ERKS3_j(ptr noundef nonnull align 8 dereferenceable(12) %2, ptr noundef nonnull align 8 dereferenceable(64) %4, i32 noundef 0)
  %5 = load { ptr, i32 }, ptr %2, align 8
  ret { ptr, i32 } %5
}

; Function Attrs: mustprogress uwtable
define hidden noundef zeroext i1 @_ZN3smt10theory_seq23branch_ternary_variableEv(ptr noundef nonnull align 8 dereferenceable(4328) %0) #6 align 2 {
  %2 = alloca i1, align 1
  %3 = alloca ptr, align 8
  %4 = alloca ptr, align 8
  %5 = alloca %"class.scoped_vector<smt::theory_seq::depeq>::iterator", align 8
  %6 = alloca { ptr, i32 }, align 8
  %7 = alloca %"class.scoped_vector<smt::theory_seq::depeq>::iterator", align 8
  %8 = alloca { ptr, i32 }, align 8
  %9 = alloca i32, align 4
  %10 = alloca ptr, align 8
  store ptr %0, ptr %3, align 8, !tbaa !28
  %11 = load ptr, ptr %3, align 8
  call void @llvm.lifetime.start.p0(i64 8, ptr %4) #3
  %12 = getelementptr inbounds nuw %"class.smt::theory_seq", ptr %11, i32 0, i32 4
  store ptr %12, ptr %4, align 8, !tbaa !210
  call void @llvm.lifetime.start.p0(i64 16, ptr %5) #3
  %13 = load ptr, ptr %4, align 8, !tbaa !210
  %14 = call { ptr, i32 } @_ZNK13scoped_vectorIN3smt10theory_seq5depeqEE5beginEv(ptr noundef nonnull align 8 dereferenceable(64) %13)
  store { ptr, i32 } %14, ptr %6, align 8
  call void @llvm.memcpy.p0.p0.i64(ptr align 8 %5, ptr align 8 %6, i64 12, i1 false)
  call void @llvm.lifetime.start.p0(i64 16, ptr %7) #3
  %15 = load ptr, ptr %4, align 8, !tbaa !210
  %16 = call { ptr, i32 } @_ZNK13scoped_vectorIN3smt10theory_seq5depeqEE3endEv(ptr noundef nonnull align 8 dereferenceable(64) %15)
  store { ptr, i32 } %16, ptr %8, align 8
  call void @llvm.memcpy.p0.p0.i64(ptr align 8 %7, ptr align 8 %8, i64 12, i1 false)
  br label %17

17:                                               ; preds = %32, %1
  %18 = call noundef zeroext i1 @_ZNK13scoped_vectorIN3smt10theory_seq5depeqEE8iteratorneERKS4_(ptr noundef nonnull align 8 dereferenceable(12) %5, ptr noundef nonnull align 8 dereferenceable(12) %7)
  br i1 %18, label %20, label %19

19:                                               ; preds = %17
  store i32 2, ptr %9, align 4
  br label %34

20:                                               ; preds = %17
  call void @llvm.lifetime.start.p0(i64 8, ptr %10) #3
  %21 = call noundef nonnull align 8 dereferenceable(48) ptr @_ZN13scoped_vectorIN3smt10theory_seq5depeqEE8iteratordeEv(ptr noundef nonnull align 8 dereferenceable(12) %5)
  store ptr %21, ptr %10, align 8, !tbaa !213
  %22 = load ptr, ptr %10, align 8, !tbaa !213
  %23 = call noundef zeroext i1 @_ZN3smt10theory_seq27branch_ternary_variable_rhsERKNS0_5depeqE(ptr noundef nonnull align 8 dereferenceable(4328) %11, ptr noundef nonnull align 8 dereferenceable(48) %22)
  br i1 %23, label %27, label %24

24:                                               ; preds = %20
  %25 = load ptr, ptr %10, align 8, !tbaa !213
  %26 = call noundef zeroext i1 @_ZN3smt10theory_seq27branch_ternary_variable_lhsERKNS0_5depeqE(ptr noundef nonnull align 8 dereferenceable(4328) %11, ptr noundef nonnull align 8 dereferenceable(48) %25)
  br i1 %26, label %27, label %28

27:                                               ; preds = %24, %20
  store i1 true, ptr %2, align 1
  store i32 1, ptr %9, align 4
  br label %29

28:                                               ; preds = %24
  store i32 0, ptr %9, align 4
  br label %29

29:                                               ; preds = %28, %27
  call void @llvm.lifetime.end.p0(i64 8, ptr %10) #3
  %30 = load i32, ptr %9, align 4
  switch i32 %30, label %34 [
    i32 0, label %31
  ]

31:                                               ; preds = %29
  br label %32

32:                                               ; preds = %31
  %33 = call noundef nonnull align 8 dereferenceable(12) ptr @_ZN13scoped_vectorIN3smt10theory_seq5depeqEE8iteratorppEv(ptr noundef nonnull align 8 dereferenceable(12) %5)
  br label %17

34:                                               ; preds = %29, %19
  call void @llvm.lifetime.end.p0(i64 16, ptr %7) #3
  call void @llvm.lifetime.end.p0(i64 16, ptr %5) #3
  call void @llvm.lifetime.end.p0(i64 8, ptr %4) #3
  %35 = load i32, ptr %9, align 4
  switch i32 %35, label %39 [
    i32 2, label %36
    i32 1, label %37
  ]

36:                                               ; preds = %34
  store i1 false, ptr %2, align 1
  br label %37

37:                                               ; preds = %36, %34
  %38 = load i1, ptr %2, align 1
  ret i1 %38

39:                                               ; preds = %34
  unreachable
}