; Function Attrs: mustprogress uwtable
define hidden noundef zeroext i1 @_ZN3smt10theory_seq23branch_ternary_variableEv(ptr noundef nonnull align 8 dereferenceable(4328) %0) local_unnamed_addr #4 align 2 {
  %2 = getelementptr inbounds nuw i8, ptr %0, i64 240
  %3 = load i32, ptr %2, align 8, !tbaa !22
  %.not19.not = icmp eq i32 %3, 0
  br i1 %.not19.not, label %.critedge._crit_edge, label %.lr.ph

.lr.ph:                                           ; preds = %1
  %4 = getelementptr inbounds nuw i8, ptr %0, i64 256
  %5 = getelementptr inbounds nuw i8, ptr %0, i64 272
  %6 = zext i32 %3 to i64
  br label %8

7:                                                ; preds = %.critedge
  %indvars.iv.next = add nuw nsw i64 %indvars.iv, 1
  %.not.not = icmp eq i64 %indvars.iv.next, %6
  br i1 %.not.not, label %.critedge._crit_edge, label %8

8:                                                ; preds = %.lr.ph, %7
  %indvars.iv = phi i64 [ 0, %.lr.ph ], [ %indvars.iv.next, %7 ]
  %9 = load ptr, ptr %5, align 8, !tbaa !194
  %10 = getelementptr inbounds nuw i32, ptr %9, i64 %indvars.iv
  %11 = load i32, ptr %10, align 4, !tbaa !195
  %12 = load ptr, ptr %4, align 8, !tbaa !196
  %13 = zext i32 %11 to i64
  %14 = getelementptr inbounds nuw %"class.smt::theory_seq::depeq", ptr %12, i64 %13
  %15 = tail call noundef zeroext i1 @_ZN3smt10theory_seq27branch_ternary_variable_rhsERKNS0_5depeqE(ptr noundef nonnull align 8 dereferenceable(4328) %0, ptr noundef nonnull align 8 dereferenceable(48) %14)
  br i1 %15, label %.critedge._crit_edge, label %.critedge

.critedge:                                        ; preds = %8
  %16 = tail call noundef zeroext i1 @_ZN3smt10theory_seq27branch_ternary_variable_lhsERKNS0_5depeqE(ptr noundef nonnull align 8 dereferenceable(4328) %0, ptr noundef nonnull align 8 dereferenceable(48) %14)
  br i1 %16, label %.critedge._crit_edge, label %7

.critedge._crit_edge:                             ; preds = %7, %8, %.critedge, %1
  %.not.lcssa = phi i1 [ false, %1 ], [ true, %.critedge ], [ true, %8 ], [ false, %7 ]
  ret i1 %.not.lcssa
}